target datalayout = "e-m:e-p270:32:32-p271:32:32-p272:64:64-i64:64-i128:128-f80:128-n8:16:32:64-S128"
target triple = "x86_64-pc-linux-gnu"

%struct._packet_info = type { ptr, ptr, i32, i32, %struct.nstime_t, %struct.nstime_t, %struct.nstime_t, i8, ptr, ptr, ptr, ptr, %struct._address, %struct._address, %struct._address, %struct._address, %struct._address, %struct._address, i32, ptr, i8, [3 x i8], %struct.anon, i32, i32, i32, i32, ptr, i8, ptr, ptr, i16, i16, i32, i32, i16, i32, i32, ptr, ptr, ptr, i8, i8, i16, i16, i16, i32, i16, i16, ptr, ptr, ptr, ptr, ptr, i32, i32 }
%struct.nstime_t = type { i64, i32 }
%struct._address = type { i32, i32, ptr, ptr }
%struct.anon = type { i8, [3 x i8] }
%struct.dccp_analysis = type { %struct._dccp_flow_t, %struct._dccp_flow_t, ptr, ptr, i32, %struct.nstime_t, %struct.nstime_t }
%struct._dccp_flow_t = type { i8, i64 }

@dccp_stream_count = internal global i32 0, align 4
@proto_dccp = internal global i32 0, align 4

; Function Attrs: inlinehint nounwind null_pointer_is_valid sspstrong uwtable
define internal i32 @cmp_address(ptr noundef %0, ptr noundef %1) #6 {
  %3 = alloca i32, align 4
  %4 = alloca ptr, align 8
  %5 = alloca ptr, align 8
  store ptr %0, ptr %4, align 8
  store ptr %1, ptr %5, align 8
  %6 = load ptr, ptr %4, align 8
  %7 = getelementptr inbounds nuw %struct._address, ptr %6, i32 0, i32 0
  %8 = load i32, ptr %7, align 8
  %9 = load ptr, ptr %5, align 8
  %10 = getelementptr inbounds nuw %struct._address, ptr %9, i32 0, i32 0
  %11 = load i32, ptr %10, align 8
  %12 = icmp sgt i32 %8, %11
  br i1 %12, label %13, label %14

13:                                               ; preds = %2
  store i32 1, ptr %3, align 4
  br label %59

14:                                               ; preds = %2
  %15 = load ptr, ptr %4, align 8
  %16 = getelementptr inbounds nuw %struct._address, ptr %15, i32 0, i32 0
  %17 = load i32, ptr %16, align 8
  %18 = load ptr, ptr %5, align 8
  %19 = getelementptr inbounds nuw %struct._address, ptr %18, i32 0, i32 0
  %20 = load i32, ptr %19, align 8
  %21 = icmp slt i32 %17, %20
  br i1 %21, label %22, label %23

22:                                               ; preds = %14
  store i32 -1, ptr %3, align 4
  br label %59

23:                                               ; preds = %14
  %24 = load ptr, ptr %4, align 8
  %25 = getelementptr inbounds nuw %struct._address, ptr %24, i32 0, i32 1
  %26 = load i32, ptr %25, align 4
  %27 = load ptr, ptr %5, align 8
  %28 = getelementptr inbounds nuw %struct._address, ptr %27, i32 0, i32 1
  %29 = load i32, ptr %28, align 4
  %30 = icmp sgt i32 %26, %29
  br i1 %30, label %31, label %32

31:                                               ; preds = %23
  store i32 1, ptr %3, align 4
  br label %59

32:                                               ; preds = %23
  %33 = load ptr, ptr %4, align 8
  %34 = getelementptr inbounds nuw %struct._address, ptr %33, i32 0, i32 1
  %35 = load i32, ptr %34, align 4
  %36 = load ptr, ptr %5, align 8
  %37 = getelementptr inbounds nuw %struct._address, ptr %36, i32 0, i32 1
  %38 = load i32, ptr %37, align 4
  %39 = icmp slt i32 %35, %38
  br i1 %39, label %40, label %41

40:                                               ; preds = %32
  store i32 -1, ptr %3, align 4
  br label %59

41:                                               ; preds = %32
  %42 = load ptr, ptr %4, align 8
  %43 = getelementptr inbounds nuw %struct._address, ptr %42, i32 0, i32 1
  %44 = load i32, ptr %43, align 4
  %45 = icmp eq i32 %44, 0
  br i1 %45, label %46, label %47

46:                                               ; preds = %41
  store i32 0, ptr %3, align 4
  br label %59

47:                                               ; preds = %41
  %48 = load ptr, ptr %4, align 8
  %49 = getelementptr inbounds nuw %struct._address, ptr %48, i32 0, i32 2
  %50 = load ptr, ptr %49, align 8
  %51 = load ptr, ptr %5, align 8
  %52 = getelementptr inbounds nuw %struct._address, ptr %51, i32 0, i32 2
  %53 = load ptr, ptr %52, align 8
  %54 = load ptr, ptr %4, align 8
  %55 = getelementptr inbounds nuw %struct._address, ptr %54, i32 0, i32 1
  %56 = load i32, ptr %55, align 4
  %57 = sext i32 %56 to i64
  %58 = call i32 @memcmp(ptr noundef %50, ptr noundef %53, i64 noundef %57) #15
  store i32 %58, ptr %3, align 4
  br label %59

59:                                               ; preds = %47, %46, %40, %31, %22, %13
  %60 = load i32, ptr %3, align 4
  ret i32 %60
}

; Function Attrs: null_pointer_is_valid sspstrong uwtable
define internal ptr @init_dccp_conversation_data(ptr noundef %0) #1 {
  %2 = alloca ptr, align 8
  %3 = alloca ptr, align 8
  store ptr %0, ptr %2, align 8
  call void @llvm.lifetime.start.p0(i64 8, ptr %3) #11
  %4 = call ptr @wmem_file_scope()
  %5 = call noalias ptr @wmem_alloc0(ptr noundef %4, i64 noundef 88) #12
  store ptr %5, ptr %3, align 8
  %6 = load ptr, ptr %3, align 8
  %7 = getelementptr inbounds nuw %struct.dccp_analysis, ptr %6, i32 0, i32 0
  %8 = getelementptr inbounds nuw %struct._dccp_flow_t, ptr %7, i32 0, i32 0
  store i8 0, ptr %8, align 8
  %9 = load ptr, ptr %3, align 8
  %10 = getelementptr inbounds nuw %struct.dccp_analysis, ptr %9, i32 0, i32 0
  %11 = getelementptr inbounds nuw %struct._dccp_flow_t, ptr %10, i32 0, i32 1
  store i64 0, ptr %11, align 8
  %12 = load ptr, ptr %3, align 8
  %13 = getelementptr inbounds nuw %struct.dccp_analysis, ptr %12, i32 0, i32 1
  %14 = getelementptr inbounds nuw %struct._dccp_flow_t, ptr %13, i32 0, i32 0
  store i8 0, ptr %14, align 8
  %15 = load ptr, ptr %3, align 8
  %16 = getelementptr inbounds nuw %struct.dccp_analysis, ptr %15, i32 0, i32 1
  %17 = getelementptr inbounds nuw %struct._dccp_flow_t, ptr %16, i32 0, i32 1
  store i64 0, ptr %17, align 8
  %18 = load i32, ptr @dccp_stream_count, align 4
  %19 = add i32 %18, 1
  store i32 %19, ptr @dccp_stream_count, align 4
  %20 = load ptr, ptr %3, align 8
  %21 = getelementptr inbounds nuw %struct.dccp_analysis, ptr %20, i32 0, i32 4
  store i32 %18, ptr %21, align 8
  %22 = load ptr, ptr %3, align 8
  %23 = getelementptr inbounds nuw %struct.dccp_analysis, ptr %22, i32 0, i32 5
  %24 = load ptr, ptr %2, align 8
  %25 = getelementptr inbounds nuw %struct._packet_info, ptr %24, i32 0, i32 4
  call void @llvm.memcpy.p0.p0.i64(ptr align 8 %23, ptr align 8 %25, i64 16, i1 false)
  %26 = load ptr, ptr %3, align 8
  %27 = getelementptr inbounds nuw %struct.dccp_analysis, ptr %26, i32 0, i32 6
  %28 = load ptr, ptr %2, align 8
  %29 = getelementptr inbounds nuw %struct._packet_info, ptr %28, i32 0, i32 4
  call void @llvm.memcpy.p0.p0.i64(ptr align 8 %27, ptr align 8 %29, i64 16, i1 false)
  %30 = load ptr, ptr %3, align 8
  call void @llvm.lifetime.end.p0(i64 8, ptr %3) #11
  ret ptr %30
}

; Function Attrs: null_pointer_is_valid sspstrong uwtable
define internal ptr @get_dccp_conversation_data(ptr noundef %0, ptr noundef %1) #1 {
  %3 = alloca ptr, align 8
  %4 = alloca ptr, align 8
  %5 = alloca i32, align 4
  %6 = alloca ptr, align 8
  store ptr %0, ptr %3, align 8
  store ptr %1, ptr %4, align 8
  call void @llvm.lifetime.start.p0(i64 4, ptr %5) #11
  call void @llvm.lifetime.start.p0(i64 8, ptr %6) #11
  %7 = load ptr, ptr %3, align 8
  %8 = load i32, ptr @proto_dccp, align 4
  %9 = call ptr @conversation_get_proto_data(ptr noundef %7, i32 noundef %8)
  store ptr %9, ptr %6, align 8
  %10 = load ptr, ptr %6, align 8
  %11 = icmp ne ptr %10, null
  br i1 %11, label %18, label %12

12:                                               ; preds = %2
  %13 = load ptr, ptr %4, align 8
  %14 = call ptr @init_dccp_conversation_data(ptr noundef %13)
  store ptr %14, ptr %6, align 8
  %15 = load ptr, ptr %3, align 8
  %16 = load i32, ptr @proto_dccp, align 4
  %17 = load ptr, ptr %6, align 8
  call void @conversation_add_proto_data(ptr noundef %15, i32 noundef %16, ptr noundef %17)
  br label %18

18:                                               ; preds = %12, %2
  %19 = load ptr, ptr %4, align 8
  %20 = getelementptr inbounds nuw %struct._packet_info, ptr %19, i32 0, i32 16
  %21 = load ptr, ptr %4, align 8
  %22 = getelementptr inbounds nuw %struct._packet_info, ptr %21, i32 0, i32 17
  %23 = call i32 @cmp_address(ptr noundef %20, ptr noundef %22)
  store i32 %23, ptr %5, align 4
  %24 = load i32, ptr %5, align 4
  %25 = icmp eq i32 %24, 0
  br i1 %25, label %26, label %35

26:                                               ; preds = %18
  %27 = load ptr, ptr %4, align 8
  %28 = getelementptr inbounds nuw %struct._packet_info, ptr %27, i32 0, i32 24
  %29 = load i32, ptr %28, align 4
  %30 = load ptr, ptr %4, align 8
  %31 = getelementptr inbounds nuw %struct._packet_info, ptr %30, i32 0, i32 25
  %32 = load i32, ptr %31, align 8
  %33 = icmp ugt i32 %29, %32
  %34 = select i1 %33, i32 1, i32 -1
  store i32 %34, ptr %5, align 4
  br label %35

35:                                               ; preds = %26, %18
  %36 = load i32, ptr %5, align 4
  %37 = icmp sge i32 %36, 0
  br i1 %37, label %38, label %47

38:                                               ; preds = %35
  %39 = load ptr, ptr %6, align 8
  %40 = getelementptr inbounds nuw %struct.dccp_analysis, ptr %39, i32 0, i32 0
  %41 = load ptr, ptr %6, align 8
  %42 = getelementptr inbounds nuw %struct.dccp_analysis, ptr %41, i32 0, i32 2
  store ptr %40, ptr %42, align 8
  %43 = load ptr, ptr %6, align 8
  %44 = getelementptr inbounds nuw %struct.dccp_analysis, ptr %43, i32 0, i32 1
  %45 = load ptr, ptr %6, align 8
  %46 = getelementptr inbounds nuw %struct.dccp_analysis, ptr %45, i32 0, i32 3
  store ptr %44, ptr %46, align 8
  br label %56

47:                                               ; preds = %35
  %48 = load ptr, ptr %6, align 8
  %49 = getelementptr inbounds nuw %struct.dccp_analysis, ptr %48, i32 0, i32 1
  %50 = load ptr, ptr %6, align 8
  %51 = getelementptr inbounds nuw %struct.dccp_analysis, ptr %50, i32 0, i32 2
  store ptr %49, ptr %51, align 8
  %52 = load ptr, ptr %6, align 8
  %53 = getelementptr inbounds nuw %struct.dccp_analysis, ptr %52, i32 0, i32 0
  %54 = load ptr, ptr %6, align 8
  %55 = getelementptr inbounds nuw %struct.dccp_analysis, ptr %54, i32 0, i32 3
  store ptr %53, ptr %55, align 8
  br label %56

56:                                               ; preds = %47, %38
  %57 = load ptr, ptr %6, align 8
  call void @llvm.lifetime.end.p0(i64 8, ptr %6) #11
  call void @llvm.lifetime.end.p0(i64 4, ptr %5) #11
  ret ptr %57
}