; Function Attrs: null_pointer_is_valid sspstrong uwtable
define internal fastcc ptr @get_dccp_conversation_data(ptr noundef %0, ptr noundef readonly captures(none) %1) unnamed_addr #1 {
  %3 = load i32, ptr @proto_dccp, align 4
  %4 = tail call ptr @conversation_get_proto_data(ptr noundef %0, i32 noundef %3)
  %.not = icmp eq ptr %4, null
  br i1 %.not, label %5, label %18

5:                                                ; preds = %2
  %6 = tail call ptr @wmem_file_scope()
  %7 = tail call noalias dereferenceable_or_null(88) ptr @wmem_alloc0(ptr noundef %6, i64 noundef 88) #12
  store i8 0, ptr %7, align 8
  %8 = getelementptr inbounds nuw i8, ptr %7, i64 8
  store i64 0, ptr %8, align 8
  %9 = getelementptr inbounds nuw i8, ptr %7, i64 16
  store i8 0, ptr %9, align 8
  %10 = getelementptr inbounds nuw i8, ptr %7, i64 24
  store i64 0, ptr %10, align 8
  %11 = load i32, ptr @dccp_stream_count, align 4
  %12 = add i32 %11, 1
  store i32 %12, ptr @dccp_stream_count, align 4
  %13 = getelementptr inbounds nuw i8, ptr %7, i64 48
  store i32 %11, ptr %13, align 8
  %14 = getelementptr inbounds nuw i8, ptr %7, i64 56
  %15 = getelementptr inbounds nuw i8, ptr %1, i64 24
  tail call void @llvm.memcpy.p0.p0.i64(ptr noundef nonnull align 8 dereferenceable(16) %14, ptr noundef nonnull readonly align 8 dereferenceable(16) %15, i64 16, i1 false)
  %16 = getelementptr inbounds nuw i8, ptr %7, i64 72
  tail call void @llvm.memcpy.p0.p0.i64(ptr noundef nonnull align 8 dereferenceable(16) %16, ptr noundef nonnull readonly align 8 dereferenceable(16) %15, i64 16, i1 false)
  %17 = load i32, ptr @proto_dccp, align 4
  tail call void @conversation_add_proto_data(ptr noundef %0, i32 noundef %17, ptr noundef %7)
  br label %18

18:                                               ; preds = %5, %2
  %.0 = phi ptr [ %4, %2 ], [ %7, %5 ]
  %19 = getelementptr inbounds nuw i8, ptr %1, i64 208
  %20 = getelementptr inbounds nuw i8, ptr %1, i64 232
  %21 = load i32, ptr %19, align 8
  %22 = load i32, ptr %20, align 8
  %23 = icmp sgt i32 %21, %22
  br i1 %23, label %.thread, label %24

24:                                               ; preds = %18
  %25 = icmp slt i32 %21, %22
  br i1 %25, label %.thread26, label %26

26:                                               ; preds = %24
  %27 = getelementptr inbounds nuw i8, ptr %1, i64 212
  %28 = load i32, ptr %27, align 4
  %29 = getelementptr inbounds nuw i8, ptr %1, i64 236
  %30 = load i32, ptr %29, align 4
  %31 = icmp sgt i32 %28, %30
  br i1 %31, label %.thread, label %32

32:                                               ; preds = %26
  %33 = icmp slt i32 %28, %30
  br i1 %33, label %.thread26, label %34

34:                                               ; preds = %32
  %35 = icmp eq i32 %28, 0
  br i1 %35, label %cmp_address.exit.thread23, label %cmp_address.exit

cmp_address.exit:                                 ; preds = %34
  %36 = getelementptr inbounds nuw i8, ptr %1, i64 216
  %37 = load ptr, ptr %36, align 8
  %38 = getelementptr inbounds nuw i8, ptr %1, i64 240
  %39 = load ptr, ptr %38, align 8
  %40 = sext i32 %28 to i64
  %41 = tail call i32 @memcmp(ptr noundef %37, ptr noundef %39, i64 noundef %40) #15
  %42 = icmp eq i32 %41, 0
  br i1 %42, label %cmp_address.exit.thread23, label %cmp_address.exit.thread

cmp_address.exit.thread23:                        ; preds = %34, %cmp_address.exit
  %43 = getelementptr inbounds nuw i8, ptr %1, i64 284
  %44 = load i32, ptr %43, align 4
  %45 = getelementptr inbounds nuw i8, ptr %1, i64 288
  %46 = load i32, ptr %45, align 8
  %47 = icmp ugt i32 %44, %46
  br i1 %47, label %.thread, label %.thread26

cmp_address.exit.thread:                          ; preds = %cmp_address.exit
  %48 = icmp sgt i32 %41, -1
  br i1 %48, label %.thread, label %.thread26

.thread:                                          ; preds = %18, %26, %cmp_address.exit.thread23, %cmp_address.exit.thread
  %49 = getelementptr inbounds nuw i8, ptr %.0, i64 32
  store ptr %.0, ptr %49, align 8
  %50 = getelementptr inbounds nuw i8, ptr %.0, i64 16
  br label %53

.thread26:                                        ; preds = %24, %32, %cmp_address.exit.thread23, %cmp_address.exit.thread
  %51 = getelementptr inbounds nuw i8, ptr %.0, i64 16
  %52 = getelementptr inbounds nuw i8, ptr %.0, i64 32
  store ptr %51, ptr %52, align 8
  br label %53

53:                                               ; preds = %.thread26, %.thread
  %.0.sink = phi ptr [ %.0, %.thread26 ], [ %50, %.thread ]
  %54 = getelementptr inbounds nuw i8, ptr %.0, i64 40
  store ptr %.0.sink, ptr %54, align 8
  ret ptr %.0
}